target datalayout = "e-m:e-p270:32:32-p271:32:32-p272:64:64-i64:64-i128:128-f80:128-n8:16:32:64-S128"
target triple = "x86_64-pc-linux-gnu"

%struct.ARKodeMemRec = type { ptr, double, ptr, i32, i32, double, double, ptr, i32, double, ptr, i32, i32, ptr, ptr, i32, ptr, ptr, i32, ptr, ptr, ptr, ptr, ptr, ptr, ptr, ptr, ptr, ptr, ptr, ptr, ptr, ptr, ptr, i32, ptr, ptr, i32, ptr, i32, ptr, ptr, ptr, ptr, ptr, ptr, ptr, ptr, ptr, ptr, ptr, ptr, ptr, ptr, ptr, ptr, ptr, ptr, ptr, ptr, ptr, ptr, ptr, ptr, ptr, ptr, i32, ptr, ptr, ptr, ptr, ptr, ptr, ptr, i32, ptr, ptr, ptr, i32, ptr, ptr, ptr, ptr, ptr, ptr, ptr, i32, i32, i32, i32, double, double, double, double, double, double, double, double, double, double, i32, ptr, i64, i32, i32, i32, i32, i64, i64, i32, i64, i64, i64, i64, i64, i64, i64, double, double, double, double, double, i32, double, double, i32, i32, i32, i32, i32, i32, i32, i32, ptr, i32, ptr, ptr, ptr, ptr, i32, i32, i32 }
%struct.ARKLsMassMemRec = type { i32, i32, ptr, ptr, ptr, ptr, double, double, i32, double, i64, i64, i64, i64, i64, i64, i64, i64, i64, ptr, ptr, ptr, ptr, ptr, ptr, ptr, ptr, ptr, ptr, i32 }

@.str = private unnamed_addr constant [118 x i8] c"generated/home/dtcxzyw/WorkSpace/Projects/compilers/llvm-opt-benchmark/bench/sundials/sundials/src/arkode/arkode_ls.c\00", align 1
@.str.1 = private unnamed_addr constant [27 x i8] c"arkode_mem = NULL illegal.\00", align 1
@__func__.ARKodeGetNumMassConvFails = private unnamed_addr constant [26 x i8] c"ARKodeGetNumMassConvFails\00", align 1
@.str.65 = private unnamed_addr constant [35 x i8] c"Mass matrix solver memory is NULL.\00", align 1

; Function Attrs: nounwind uwtable
define i32 @arkLs_AccessMassMem(ptr noundef %0, ptr noundef %1, ptr noundef %2) #0 {
  %4 = alloca i32, align 4
  %5 = alloca ptr, align 8
  %6 = alloca ptr, align 8
  %7 = alloca ptr, align 8
  %8 = alloca ptr, align 8
  %9 = alloca i32, align 4
  store ptr %0, ptr %5, align 8, !tbaa !11
  store ptr %1, ptr %6, align 8, !tbaa !155
  store ptr %2, ptr %7, align 8, !tbaa !159
  call void @llvm.lifetime.start.p0(i64 8, ptr %8) #7
  %10 = load ptr, ptr %5, align 8, !tbaa !11
  %11 = getelementptr inbounds nuw %struct.ARKodeMemRec, ptr %10, i32 0, i32 69
  %12 = load ptr, ptr %11, align 8, !tbaa !97
  %13 = load ptr, ptr %5, align 8, !tbaa !11
  %14 = call ptr %12(ptr noundef %13)
  store ptr %14, ptr %8, align 8, !tbaa !3
  %15 = load ptr, ptr %8, align 8, !tbaa !3
  %16 = icmp eq ptr %15, null
  br i1 %16, label %17, label %20

17:                                               ; preds = %3
  %18 = load ptr, ptr %5, align 8, !tbaa !11
  %19 = load ptr, ptr %6, align 8, !tbaa !155
  call void (ptr, i32, i32, ptr, ptr, ptr, ...) @arkProcessError(ptr noundef %18, i32 noundef -6, i32 noundef 4109, ptr noundef %19, ptr noundef @.str, ptr noundef @.str.65)
  store i32 -6, ptr %4, align 4
  store i32 1, ptr %9, align 4
  br label %23

20:                                               ; preds = %3
  %21 = load ptr, ptr %8, align 8, !tbaa !3
  %22 = load ptr, ptr %7, align 8, !tbaa !159
  store ptr %21, ptr %22, align 8, !tbaa !101
  store i32 0, ptr %4, align 4
  store i32 1, ptr %9, align 4
  br label %23

23:                                               ; preds = %20, %17
  call void @llvm.lifetime.end.p0(i64 8, ptr %8) #7
  %24 = load i32, ptr %4, align 4
  ret i32 %24
}

; Function Attrs: nounwind uwtable
define i32 @ARKodeGetNumMassConvFails(ptr noundef %0, ptr noundef %1) #0 {
  %3 = alloca i32, align 4
  %4 = alloca ptr, align 8
  %5 = alloca ptr, align 8
  %6 = alloca ptr, align 8
  %7 = alloca ptr, align 8
  %8 = alloca i32, align 4
  %9 = alloca i32, align 4
  store ptr %0, ptr %4, align 8, !tbaa !3
  store ptr %1, ptr %5, align 8, !tbaa !165
  call void @llvm.lifetime.start.p0(i64 8, ptr %6) #7
  call void @llvm.lifetime.start.p0(i64 8, ptr %7) #7
  call void @llvm.lifetime.start.p0(i64 4, ptr %8) #7
  %10 = load ptr, ptr %4, align 8, !tbaa !3
  %11 = icmp eq ptr %10, null
  br i1 %11, label %12, label %13

12:                                               ; preds = %2
  call void (ptr, i32, i32, ptr, ptr, ptr, ...) @arkProcessError(ptr noundef null, i32 noundef -21, i32 noundef 2114, ptr noundef @__func__.ARKodeGetNumMassConvFails, ptr noundef @.str, ptr noundef @.str.1)
  store i32 -21, ptr %3, align 4
  store i32 1, ptr %9, align 4
  br label %33

13:                                               ; preds = %2
  %14 = load ptr, ptr %4, align 8, !tbaa !3
  store ptr %14, ptr %6, align 8, !tbaa !11
  %15 = load ptr, ptr %6, align 8, !tbaa !11
  %16 = getelementptr inbounds nuw %struct.ARKodeMemRec, ptr %15, i32 0, i32 66
  %17 = load i32, ptr %16, align 8, !tbaa !120
  %18 = icmp ne i32 %17, 0
  br i1 %18, label %21, label %19

19:                                               ; preds = %13
  %20 = load ptr, ptr %5, align 8, !tbaa !165
  store i64 0, ptr %20, align 8, !tbaa !117
  store i32 0, ptr %3, align 4
  store i32 1, ptr %9, align 4
  br label %33

21:                                               ; preds = %13
  %22 = load ptr, ptr %6, align 8, !tbaa !11
  %23 = call i32 @arkLs_AccessMassMem(ptr noundef %22, ptr noundef @__func__.ARKodeGetNumMassConvFails, ptr noundef %7)
  store i32 %23, ptr %8, align 4, !tbaa !30
  %24 = load i32, ptr %8, align 4, !tbaa !30
  %25 = icmp ne i32 %24, 0
  br i1 %25, label %26, label %28

26:                                               ; preds = %21
  %27 = load i32, ptr %8, align 4, !tbaa !30
  store i32 %27, ptr %3, align 4
  store i32 1, ptr %9, align 4
  br label %33

28:                                               ; preds = %21
  %29 = load ptr, ptr %7, align 8, !tbaa !101
  %30 = getelementptr inbounds nuw %struct.ARKLsMassMemRec, ptr %29, i32 0, i32 18
  %31 = load i64, ptr %30, align 8, !tbaa !147
  %32 = load ptr, ptr %5, align 8, !tbaa !165
  store i64 %31, ptr %32, align 8, !tbaa !117
  store i32 0, ptr %3, align 4
  store i32 1, ptr %9, align 4
  br label %33

33:                                               ; preds = %28, %26, %19, %12
  call void @llvm.lifetime.end.p0(i64 4, ptr %8) #7
  call void @llvm.lifetime.end.p0(i64 8, ptr %7) #7
  call void @llvm.lifetime.end.p0(i64 8, ptr %6) #7
  %34 = load i32, ptr %3, align 4
  ret i32 %34
}